target datalayout = "e-m:e-p270:32:32-p271:32:32-p272:64:64-i64:64-i128:128-f80:128-n8:16:32:64-S128"
target triple = "x86_64-pc-linux-gnu"

%struct.FFTFILTContext = type { ptr, i32, i32, i32, i32, [4 x i32], [4 x i32], [32 x [4 x ptr]], [32 x [4 x ptr]], [32 x [4 x ptr]], [32 x [4 x ptr]], ptr, ptr, ptr, ptr, [4 x i32], [4 x i32], [4 x i64], [4 x i64], [4 x i64], [4 x i64], [4 x ptr], [4 x ptr], [4 x ptr], [4 x ptr], [4 x i32], [4 x ptr], [4 x ptr], [4 x ptr], ptr, ptr }

; Function Attrs: inlinehint nounwind uwtable
define internal double @lum(ptr noundef %0, double noundef %1, double noundef %2, i32 noundef %3) #4 {
  %5 = alloca ptr, align 8
  %6 = alloca double, align 8
  %7 = alloca double, align 8
  %8 = alloca i32, align 4
  %9 = alloca ptr, align 8
  store ptr %0, ptr %5, align 8, !tbaa !26
  store double %1, ptr %6, align 8, !tbaa !89
  store double %2, ptr %7, align 8, !tbaa !89
  store i32 %3, ptr %8, align 4, !tbaa !24
  call void @llvm.lifetime.start.p0(i64 8, ptr %9) #10
  %10 = load ptr, ptr %5, align 8, !tbaa !26
  store ptr %10, ptr %9, align 8, !tbaa !22
  %11 = load ptr, ptr %9, align 8, !tbaa !22
  %12 = getelementptr inbounds nuw %struct.FFTFILTContext, ptr %11, i32 0, i32 24
  %13 = load i32, ptr %8, align 4, !tbaa !24
  %14 = sext i32 %13 to i64
  %15 = getelementptr inbounds [4 x ptr], ptr %12, i64 0, i64 %14
  %16 = load ptr, ptr %15, align 8, !tbaa !57
  %17 = load double, ptr %6, align 8, !tbaa !89
  %18 = fptosi double %17 to i32
  %19 = sext i32 %18 to i64
  %20 = load ptr, ptr %9, align 8, !tbaa !22
  %21 = getelementptr inbounds nuw %struct.FFTFILTContext, ptr %20, i32 0, i32 18
  %22 = load i32, ptr %8, align 4, !tbaa !24
  %23 = sext i32 %22 to i64
  %24 = getelementptr inbounds [4 x i64], ptr %21, i64 0, i64 %23
  %25 = load i64, ptr %24, align 8, !tbaa !54
  %26 = mul i64 %19, %25
  %27 = load double, ptr %7, align 8, !tbaa !89
  %28 = fptosi double %27 to i32
  %29 = sext i32 %28 to i64
  %30 = add i64 %26, %29
  %31 = getelementptr inbounds nuw float, ptr %16, i64 %30
  %32 = load float, ptr %31, align 4, !tbaa !59
  %33 = fpext nsz float %32 to double
  call void @llvm.lifetime.end.p0(i64 8, ptr %9) #10
  ret double %33
}

; Function Attrs: nounwind uwtable
define internal double @weight_U(ptr noundef %0, double noundef %1, double noundef %2) #1 {
  %4 = alloca ptr, align 8
  %5 = alloca double, align 8
  %6 = alloca double, align 8
  store ptr %0, ptr %4, align 8, !tbaa !26
  store double %1, ptr %5, align 8, !tbaa !89
  store double %2, ptr %6, align 8, !tbaa !89
  %7 = load ptr, ptr %4, align 8, !tbaa !26
  %8 = load double, ptr %5, align 8, !tbaa !89
  %9 = load double, ptr %6, align 8, !tbaa !89
  %10 = call nsz double @lum(ptr noundef %7, double noundef %8, double noundef %9, i32 noundef 1)
  ret double %10
}